; Function Attrs: nounwind uwtable
define ptr @l_Lean_PrettyPrinter_Parenthesizer_sepByNoAntiquot_parenthesizer(ptr noundef %0, ptr noundef %1, ptr noundef %2, ptr noundef %3, ptr noundef %4, ptr noundef %5, ptr noundef %6) local_unnamed_addr #0 {
  %8 = tail call ptr @l_Lean_Syntax_MonadTraverser_getCur___at_Lean_PrettyPrinter_Parenthesizer_visitArgs___spec__1___rarg(ptr noundef %3, ptr poison, ptr poison, ptr noundef %6)
  %9 = getelementptr inbounds nuw i8, ptr %8, i64 8
  %10 = load ptr, ptr %9, align 8, !tbaa !4
  %11 = ptrtoint ptr %10 to i64
  %12 = and i64 %11, 1
  %.not = icmp eq i64 %12, 0
  br i1 %.not, label %13, label %lean_inc.exit28

13:                                               ; preds = %7
  %.val.i = load i32, ptr %10, align 4, !tbaa !8
  %14 = icmp sgt i32 %.val.i, 0
  br i1 %14, label %15, label %17, !prof !11

15:                                               ; preds = %13
  %16 = add nuw i32 %.val.i, 1
  store i32 %16, ptr %10, align 4, !tbaa !8
  br label %lean_inc.exit28

17:                                               ; preds = %13
  %.not.i35 = icmp eq i32 %.val.i, 0
  br i1 %.not.i35, label %lean_inc.exit28, label %18

18:                                               ; preds = %17
  tail call void @lean_inc_ref_cold(ptr noundef nonnull %10) #6
  br label %lean_inc.exit28

lean_inc.exit28:                                  ; preds = %18, %17, %15, %7
  %19 = getelementptr inbounds nuw i8, ptr %8, i64 16
  %20 = load ptr, ptr %19, align 8, !tbaa !4
  %21 = ptrtoint ptr %20 to i64
  %22 = and i64 %21, 1
  %.not39 = icmp eq i64 %22, 0
  br i1 %.not39, label %23, label %lean_inc.exit

23:                                               ; preds = %lean_inc.exit28
  %.val.i36 = load i32, ptr %20, align 4, !tbaa !8
  %24 = icmp sgt i32 %.val.i36, 0
  br i1 %24, label %25, label %27, !prof !11

25:                                               ; preds = %23
  %26 = add nuw i32 %.val.i36, 1
  store i32 %26, ptr %20, align 4, !tbaa !8
  br label %lean_inc.exit

27:                                               ; preds = %23
  %.not.i37 = icmp eq i32 %.val.i36, 0
  br i1 %.not.i37, label %lean_inc.exit, label %28

28:                                               ; preds = %27
  tail call void @lean_inc_ref_cold(ptr noundef nonnull %20) #6
  br label %lean_inc.exit

lean_inc.exit:                                    ; preds = %28, %27, %25, %lean_inc.exit28
  %29 = ptrtoint ptr %8 to i64
  %30 = and i64 %29, 1
  %.not40 = icmp eq i64 %30, 0
  br i1 %.not40, label %31, label %lean_dec.exit30

31:                                               ; preds = %lean_inc.exit
  %32 = load i32, ptr %8, align 4, !tbaa !8
  %33 = icmp sgt i32 %32, 1
  br i1 %33, label %34, label %36, !prof !11

34:                                               ; preds = %31
  %35 = add nsw i32 %32, -1
  store i32 %35, ptr %8, align 4, !tbaa !8
  br label %lean_dec.exit30

36:                                               ; preds = %31
  %.not.i = icmp eq i32 %32, 0
  br i1 %.not.i, label %lean_dec.exit30, label %37

37:                                               ; preds = %36
  tail call void @lean_dec_ref_cold(ptr noundef nonnull %8) #6
  br label %lean_dec.exit30

lean_dec.exit30:                                  ; preds = %37, %36, %34, %lean_inc.exit
  %38 = tail call ptr @l_Lean_Syntax_getArgs(ptr noundef %10) #6
  br i1 %.not, label %39, label %lean_dec.exit29

39:                                               ; preds = %lean_dec.exit30
  %40 = load i32, ptr %10, align 4, !tbaa !8
  %41 = icmp sgt i32 %40, 1
  br i1 %41, label %42, label %44, !prof !11

42:                                               ; preds = %39
  %43 = add nsw i32 %40, -1
  store i32 %43, ptr %10, align 4, !tbaa !8
  br label %lean_dec.exit29

44:                                               ; preds = %39
  %.not.i31 = icmp eq i32 %40, 0
  br i1 %.not.i31, label %lean_dec.exit29, label %45

45:                                               ; preds = %44
  tail call void @lean_dec_ref_cold(ptr noundef nonnull %10) #6
  br label %lean_dec.exit29

lean_dec.exit29:                                  ; preds = %45, %44, %42, %lean_dec.exit30
  %46 = getelementptr i8, ptr %38, i64 8
  %.val = load i64, ptr %46, align 8, !tbaa !13
  %47 = shl i64 %.val, 1
  %48 = or disjoint i64 %47, 1
  %49 = inttoptr i64 %48 to ptr
  %50 = ptrtoint ptr %38 to i64
  %51 = and i64 %50, 1
  %.not41 = icmp eq i64 %51, 0
  br i1 %.not41, label %52, label %lean_dec.exit

52:                                               ; preds = %lean_dec.exit29
  %53 = load i32, ptr %38, align 4, !tbaa !8
  %54 = icmp sgt i32 %53, 1
  br i1 %54, label %55, label %57, !prof !11

55:                                               ; preds = %52
  %56 = add nsw i32 %53, -1
  store i32 %56, ptr %38, align 4, !tbaa !8
  br label %lean_dec.exit

57:                                               ; preds = %52
  %.not.i33 = icmp eq i32 %53, 0
  br i1 %.not.i33, label %lean_dec.exit, label %58

58:                                               ; preds = %57
  tail call void @lean_dec_ref_cold(ptr noundef nonnull %38) #6
  br label %lean_dec.exit

lean_dec.exit:                                    ; preds = %58, %57, %55, %lean_dec.exit29
  %59 = tail call ptr @l_List_range(ptr noundef nonnull %49) #6
  %60 = tail call ptr @l_List_reverse___rarg(ptr noundef %59) #6
  tail call void @lean_inc_heartbeat() #6
  %61 = tail call noalias ptr @mi_malloc_small(i64 noundef 48) #6
  %62 = icmp eq ptr %61, null
  br i1 %62, label %63, label %lean_alloc_closure.exit

63:                                               ; preds = %lean_dec.exit
  tail call void @lean_internal_panic_out_of_memory() #7
  unreachable

lean_alloc_closure.exit:                          ; preds = %lean_dec.exit
  %64 = getelementptr inbounds nuw i8, ptr %61, i64 4
  store i32 1, ptr %61, align 4, !tbaa !8
  store i32 -184549328, ptr %64, align 4
  %65 = getelementptr inbounds nuw i8, ptr %61, i64 8
  store ptr @l_List_forM___at_Lean_PrettyPrinter_Parenthesizer_sepByNoAntiquot_parenthesizer___spec__1___boxed, ptr %65, align 8, !tbaa !4
  %66 = getelementptr inbounds nuw i8, ptr %61, i64 16
  store i16 8, ptr %66, align 8, !tbaa !15
  %67 = getelementptr inbounds nuw i8, ptr %61, i64 18
  store i16 3, ptr %67, align 2, !tbaa !15
  %68 = getelementptr inbounds nuw i8, ptr %61, i64 24
  store ptr %0, ptr %68, align 8, !tbaa !4
  %69 = getelementptr inbounds nuw i8, ptr %61, i64 32
  store ptr %1, ptr %69, align 8, !tbaa !4
  %70 = getelementptr inbounds nuw i8, ptr %61, i64 40
  store ptr %60, ptr %70, align 8, !tbaa !4
  %71 = tail call ptr @l_Lean_PrettyPrinter_Parenthesizer_visitArgs(ptr noundef nonnull %61, ptr noundef %2, ptr noundef %3, ptr noundef %4, ptr noundef %5, ptr noundef %20)
  ret ptr %71
}